; Function Attrs: mustprogress uwtable
define void @_ZN10open_spiel5tarok10TarokState24AppendToInformationStateEiRKNSt7__cxx1112basic_stringIcSt11char_traitsIcESaIcEEE(ptr noundef nonnull readonly align 8 captures(none) dereferenceable(280) %0, i32 noundef %1, ptr noundef nonnull align 8 dereferenceable(32) %2) local_unnamed_addr #5 align 2 personality ptr @__gxx_personality_v0 {
  %4 = alloca %"class.absl::debian2::AlphaNum", align 8
  %5 = getelementptr inbounds nuw i8, ptr %0, i64 256
  %6 = sext i32 %1 to i64
  %7 = getelementptr inbounds nuw i8, ptr %0, i64 264
  %8 = load ptr, ptr %7, align 8
  %9 = load ptr, ptr %5, align 8
  %10 = ptrtoint ptr %8 to i64
  %11 = ptrtoint ptr %9 to i64
  %12 = sub i64 %10, %11
  %13 = ashr exact i64 %12, 5
  %.not.i.i = icmp ugt i64 %13, %6
  br i1 %.not.i.i, label %_ZNSt6vectorINSt7__cxx1112basic_stringIcSt11char_traitsIcESaIcEEESaIS5_EE2atEm.exit, label %14

14:                                               ; preds = %3
  tail call void (ptr, ...) @_ZSt24__throw_out_of_range_fmtPKcz(ptr noundef nonnull @.str.94, i64 noundef %6, i64 noundef %13) #31
  unreachable

_ZNSt6vectorINSt7__cxx1112basic_stringIcSt11char_traitsIcESaIcEEESaIS5_EE2atEm.exit: ; preds = %3
  %15 = tail call noundef ptr @_ZNKSt7__cxx1112basic_stringIcSt11char_traitsIcESaIcEE4dataEv(ptr noundef nonnull align 8 dereferenceable(32) %2) #30
  %16 = tail call noundef i64 @_ZNKSt7__cxx1112basic_stringIcSt11char_traitsIcESaIcEE4sizeEv(ptr noundef nonnull align 8 dereferenceable(32) %2) #30
  store ptr %15, ptr %4, align 8
  %17 = icmp sgt i64 %16, -1
  br i1 %17, label %_ZN4absl7debian28AlphaNumC2ISaIcEEERKNSt7__cxx1112basic_stringIcSt11char_traitsIcET_EE.exit, label %18

18:                                               ; preds = %_ZNSt6vectorINSt7__cxx1112basic_stringIcSt11char_traitsIcESaIcEEESaIS5_EE2atEm.exit
  tail call void @llvm.trap()
  unreachable

_ZN4absl7debian28AlphaNumC2ISaIcEEERKNSt7__cxx1112basic_stringIcSt11char_traitsIcET_EE.exit: ; preds = %_ZNSt6vectorINSt7__cxx1112basic_stringIcSt11char_traitsIcESaIcEEESaIS5_EE2atEm.exit
  %19 = getelementptr inbounds %"class.std::__cxx11::basic_string", ptr %9, i64 %6
  %20 = getelementptr inbounds nuw i8, ptr %4, i64 8
  store i64 %16, ptr %20, align 8
  call void @_ZN4absl7debian29StrAppendEPNSt7__cxx1112basic_stringIcSt11char_traitsIcESaIcEEERKNS0_8AlphaNumE(ptr noundef nonnull %19, ptr noundef nonnull align 8 dereferenceable(48) %4)
  ret void
}